Certificate:
    Data:
        Version: 3 (0x2)
        Serial Number:
            83:9a:21:cb:a4:a4:48:d0:6e:32:38:66:ed:5e:96:92
    Signature Algorithm: sha256WithRSAEncryption
        Issuer: C=fr, ST=isere, L=smh, O=Ensimag, OU=Cysec, CN=Joelle_Anass/emailAddress=jsp@gmail.com
        Validity
            Not Before: Oct 12 14:33:34 2020 GMT
            Not After : Oct 12 14:33:34 2021 GMT
        Subject: C=fr, ST=isere, O=Ensimag, OU=Cysec, CN=Joelle_Anass/emailAddress=jsp@gmail.com
        Subject Public Key Info:
            Public Key Algorithm: rsaEncryption
                Public-Key: (2048 bit)
                Modulus:
                    00:99:b5:57:a3:95:25:97:37:9e:3b:c1:a4:15:7f:
                    1e:d0:39:44:a4:18:7d:97:62:8f:4a:48:6f:fc:5a:
                    bf:ea:a3:48:b7:b8:7f:99:ae:33:de:1f:f5:ee:50:
                    05:58:f8:96:8f:1f:3d:34:74:43:11:8c:0a:b3:41:
                    ff:de:66:bc:32:27:ce:9e:fd:7c:bc:9e:c7:14:c0:
                    44:dd:dc:7b:59:95:0a:f0:f0:a3:58:56:4c:b1:63:
                    17:af:18:ee:e6:cd:41:36:b8:2c:64:b8:2b:35:e6:
                    0d:e3:03:8a:64:d3:82:71:32:d9:b7:3c:ec:67:9a:
                    0c:f9:8e:a4:db:50:6d:b5:09:ad:e2:c0:f5:3d:97:
                    71:7b:bd:0c:8f:cf:a8:5b:95:7f:25:6f:24:c1:bc:
                    e4:46:17:6c:70:d3:77:f7:7c:33:27:2c:4b:40:e1:
                    39:2b:9b:72:a7:75:55:a0:62:54:9d:d9:15:f1:5d:
                    0e:f6:91:83:cc:a6:c4:2a:59:55:91:6a:27:cd:65:
                    76:3b:2e:60:c6:c0:10:de:5a:b4:ca:47:ff:fe:5f:
                    56:34:53:63:7c:a2:b7:0a:41:d5:63:a1:4e:21:26:
                    91:9c:bb:bc:a6:a4:56:6a:ef:47:a1:7b:4e:fe:6d:
                    71:c0:3b:ae:9a:aa:70:25:2e:c2:f2:bc:c2:dd:1e:
                    aa:75
                Exponent: 65537 (0x10001)
        X509v3 extensions:
            X509v3 Basic Constraints: 
                CA:FALSE
            Netscape Comment: 
                OpenSSL Generated Certificate
            X509v3 Subject Key Identifier: 
                90:48:A1:B0:01:34:D5:BF:83:9E:A0:04:08:22:A7:0F:5C:AA:22:1C
            X509v3 Authority Key Identifier: 
                keyid:11:0B:5C:1E:07:DA:DA:41:E2:65:3D:7D:54:53:26:8A:7B:82:C2:B5

    Signature Algorithm: sha256WithRSAEncryption
         80:7e:65:ca:7b:69:ed:e6:2e:e7:42:76:dc:6b:18:22:bf:0c:
         9c:b4:5c:a2:9e:b1:78:8d:67:80:14:f8:d0:44:f3:d9:ed:95:
         05:88:ba:bc:46:aa:0f:85:17:51:b6:47:c1:94:dc:c1:68:9d:
         e0:92:19:b5:81:20:e8:a7:8c:8f:35:53:34:5e:eb:02:e9:46:
         9d:e6:45:19:94:be:e0:84:7f:e4:de:2a:91:c5:d9:27:0a:cc:
         3a:ff:4b:fe:ec:19:de:a2:f8:10:8e:5e:b9:4a:b4:4e:d2:95:
         9f:d0:c8:68:d6:d9:bc:67:76:49:06:7d:6c:8a:91:a4:9f:7a:
         ad:e4:f0:81:0f:4e:e6:88:5d:b3:57:b6:1b:ed:ea:c7:5c:43:
         fe:e2:1f:19:c8:ea:22:f3:e2:80:bd:4b:88:ea:26:e0:64:b4:
         e0:2f:ba:f2:a8:e0:04:c8:f7:8b:44:01:a7:d8:89:d4:0c:74:
         6c:4f:7f:db:b0:37:0a:48:c0:e0:82:7c:2b:44:59:d4:3b:b1:
         e6:88:d9:71:08:06:f8:0d:b0:6f:d1:91:43:90:ed:1c:75:12:
         05:fb:e1:13:49:e8:64:4e:50:12:36:50:39:56:3c:28:0e:76:
         71:84:22:1b:6f:36:74:dd:1f:98:49:b2:28:66:1e:3b:7f:8d:
         4b:0c:25:61:7e:f9:bf:bc:ba:20:80:bb:36:b1:7b:41:d1:11:
         ac:01:f7:27:8b:da:35:a7:9e:58:fd:de:71:6a:1b:ff:a7:39:
         d0:80:c3:2a:76:c9:a7:85:c7:bc:51:2a:77:63:cf:45:a2:d3:
         68:db:64:b2:4f:81:a0:9e:8a:85:be:f7:5d:d7:a2:8f:8a:2e:
         e0:d5:3d:2b:7b:12:e1:32:ae:24:ac:77:fc:26:8f:5e:7d:bb:
         a6:74:4d:07:fa:d7:b8:24:38:f4:f6:20:f5:c8:81:43:1b:e7:
         c9:20:aa:80:89:9b:47:ab:47:ec:2a:6f:07:68:7a:12:8f:4a:
         59:77:3a:74:73:29:07:22:bf:86:c2:72:54:31:9a:47:7f:f6:
         57:ff:c3:79:53:f2:04:d7:e0:ff:92:ba:0c:40:3a:0a:10:da:
         9e:1a:a0:22:51:c4:19:ec:f7:26:73:e0:7d:b2:82:92:b0:7f:
         b1:8d:c1:fa:a0:43:02:d2:2a:e3:a6:26:d4:60:c7:f9:69:8e:
         5b:c4:6e:b5:fb:35:f7:14:ba:ab:cc:9c:27:f5:45:eb:3d:b7:
         cb:94:c0:ad:11:81:56:20:64:9f:eb:91:c1:1e:e3:f4:2f:0a:
         79:64:67:fc:21:d2:f4:a8:b0:07:d2:f5:b5:d7:b1:5a:8a:03:
         f8:d0:e4:4a:01:3d:f2:dc
-----BEGIN CERTIFICATE-----
MIIE/TCCAuWgAwIBAgIRAIOaIcukpEjQbjI4Zu1elpIwDQYJKoZIhvcNAQELBQAw
gYIxCzAJBgNVBAYTAmZyMQ4wDAYDVQQIDAVpc2VyZTEMMAoGA1UEBwwDc21oMRAw
DgYDVQQKDAdFbnNpbWFnMQ4wDAYDVQQLDAVDeXNlYzEVMBMGA1UEAwwMSm9lbGxl
X0FuYXNzMRwwGgYJKoZIhvcNAQkBFg1qc3BAZ21haWwuY29tMB4XDTIwMTAxMjE0
MzMzNFoXDTIxMTAxMjE0MzMzNFowdDELMAkGA1UEBhMCZnIxDjAMBgNVBAgMBWlz
ZXJlMRAwDgYDVQQKDAdFbnNpbWFnMQ4wDAYDVQQLDAVDeXNlYzEVMBMGA1UEAwwM
Sm9lbGxlX0FuYXNzMRwwGgYJKoZIhvcNAQkBFg1qc3BAZ21haWwuY29tMIIBIjAN
BgkqhkiG9w0BAQEFAAOCAQ8AMIIBCgKCAQEAmbVXo5UllzeeO8GkFX8e0DlEpBh9
l2KPSkhv/Fq/6qNIt7h/ma4z3h/17lAFWPiWjx89NHRDEYwKs0H/3ma8MifOnv18
vJ7HFMBE3dx7WZUK8PCjWFZMsWMXrxju5s1BNrgsZLgrNeYN4wOKZNOCcTLZtzzs
Z5oM+Y6k21BttQmt4sD1PZdxe70Mj8+oW5V/JW8kwbzkRhdscNN393wzJyxLQOE5
K5typ3VVoGJUndkV8V0O9pGDzKbEKllVkWonzWV2Oy5gxsAQ3lq0ykf//l9WNFNj
fKK3CkHVY6FOISaRnLu8pqRWau9HoXtO/m1xwDuumqpwJS7C8rzC3R6qdQIDAQAB
o3sweTAJBgNVHRMEAjAAMCwGCWCGSAGG+EIBDQQfFh1PcGVuU1NMIEdlbmVyYXRl
ZCBDZXJ0aWZpY2F0ZTAdBgNVHQ4EFgQUkEihsAE01b+DnqAECCKnD1yqIhwwHwYD
VR0jBBgwFoAUEQtcHgfa2kHiZT19VFMminuCwrUwDQYJKoZIhvcNAQELBQADggIB
AIB+Zcp7ae3mLudCdtxrGCK/DJy0XKKesXiNZ4AU+NBE89ntlQWIurxGqg+FF1G2
R8GU3MFoneCSGbWBIOinjI81UzRe6wLpRp3mRRmUvuCEf+TeKpHF2ScKzDr/S/7s
Gd6i+BCOXrlKtE7SlZ/QyGjW2bxndkkGfWyKkaSfeq3k8IEPTuaIXbNXthvt6sdc
Q/7iHxnI6iLz4oC9S4jqJuBktOAvuvKo4ATI94tEAafYidQMdGxPf9uwNwpIwOCC
fCtEWdQ7seaI2XEIBvgNsG/RkUOQ7Rx1EgX74RNJ6GROUBI2UDlWPCgOdnGEIhtv
NnTdH5hJsihmHjt/jUsMJWF++b+8uiCAuzaxe0HREawB9yeL2jWnnlj93nFqG/+n
OdCAwyp2yaeFx7xRKndjz0Wi02jbZLJPgaCeioW+913Xoo+KLuDVPSt7EuEyriSs
d/wmj159u6Z0TQf617gkOPT2IPXIgUMb58kgqoCJm0erR+wqbwdoehKPSll3OnRz
KQciv4bCclQxmkd/9lf/w3lT8gTX4P+SugxAOgoQ2p4aoCJRxBns9yZz4H2ygpKw
f7GNwfqgQwLSKuOmJtRgx/lpjlvEbrX7NfcUuqvMnCf1Res9t8uUwK0RgVYgZJ/r
kcEe4/QvCnlkZ/wh0vSosAfS9bXXsVqKA/jQ5EoBPfLc
-----END CERTIFICATE-----
